; ModuleID = 'source-C-CXX/11/200.cpp'
source_filename = "source-C-CXX/11/200.cpp"
target datalayout = "e-m:e-p270:32:32-p271:32:32-p272:64:64-i64:64-f80:128-n8:16:32:64-S128"
target triple = "x86_64-pc-linux-gnu"

%"class.std::ios_base::Init" = type { i8 }
%"class.std::basic_istream" = type { i32 (...)**, i64, %"class.std::basic_ios" }
%"class.std::basic_ios" = type { %"class.std::ios_base", %"class.std::basic_ostream"*, i8, i8, %"class.std::basic_streambuf"*, %"class.std::ctype"*, %"class.std::num_put"*, %"class.std::num_get"* }
%"class.std::ios_base" = type { i32 (...)**, i64, i64, i32, i32, i32, %"struct.std::ios_base::_Callback_list"*, %"struct.std::ios_base::_Words", [8 x %"struct.std::ios_base::_Words"], i32, %"struct.std::ios_base::_Words"*, %"class.std::locale" }
%"struct.std::ios_base::_Callback_list" = type { %"struct.std::ios_base::_Callback_list"*, void (i32, %"class.std::ios_base"*, i32)*, i32, i32 }
%"struct.std::ios_base::_Words" = type { i8*, i64 }
%"class.std::locale" = type { %"class.std::locale::_Impl"* }
%"class.std::locale::_Impl" = type { i32, %"class.std::locale::facet"**, i64, %"class.std::locale::facet"**, i8** }
%"class.std::locale::facet" = type <{ i32 (...)**, i32, [4 x i8] }>
%"class.std::basic_ostream" = type { i32 (...)**, %"class.std::basic_ios" }
%"class.std::basic_streambuf" = type { i32 (...)**, i8*, i8*, i8*, i8*, i8*, i8*, %"class.std::locale" }
%"class.std::ctype" = type <{ %"class.std::locale::facet.base", [4 x i8], %struct.__locale_struct*, i8, [7 x i8], i32*, i32*, i16*, i8, [256 x i8], [256 x i8], i8, [6 x i8] }>
%"class.std::locale::facet.base" = type <{ i32 (...)**, i32 }>
%struct.__locale_struct = type { [13 x %struct.__locale_data*], i16*, i32*, i32*, [13 x i8*] }
%struct.__locale_data = type opaque
%"class.std::num_put" = type { %"class.std::locale::facet.base", [4 x i8] }
%"class.std::num_get" = type { %"class.std::locale::facet.base", [4 x i8] }

@_ZStL8__ioinit = internal global %"class.std::ios_base::Init" zeroinitializer, align 1
@__dso_handle = external hidden global i8
@_ZSt3cin = external global %"class.std::basic_istream", align 8
@_ZSt4cout = external global %"class.std::basic_ostream", align 8
@llvm.global_ctors = appending global [1 x { i32, void ()*, i8* }] [{ i32, void ()*, i8* } { i32 65535, void ()* @_GLOBAL__sub_I_200.cpp, i8* null }]

declare void @_ZNSt8ios_base4InitC1Ev(%"class.std::ios_base::Init"* nonnull align 1 dereferenceable(1)) unnamed_addr #0

; Function Attrs: nounwind
declare void @_ZNSt8ios_base4InitD1Ev(%"class.std::ios_base::Init"* nonnull align 1 dereferenceable(1)) unnamed_addr #1

; Function Attrs: nofree nounwind
declare i32 @__cxa_atexit(void (i8*)*, i8*, i8*) local_unnamed_addr #2

; Function Attrs: mustprogress norecurse sspstrong uwtable
define dso_local i32 @main() local_unnamed_addr #3 {
  %1 = alloca [100 x i32], align 16
  %2 = alloca [100 x i32], align 16
  %3 = bitcast [100 x i32]* %1 to i8*
  call void @llvm.lifetime.start.p0i8(i64 400, i8* nonnull %3) #8
  %4 = bitcast [100 x i32]* %2 to i8*
  call void @llvm.lifetime.start.p0i8(i64 400, i8* nonnull %4) #8
  %5 = getelementptr inbounds [100 x i32], [100 x i32]* %1, i64 0, i64 0
  %6 = call nonnull align 8 dereferenceable(16) %"class.std::basic_istream"* @_ZNSirsERi(%"class.std::basic_istream"* nonnull align 8 dereferenceable(16) @_ZSt3cin, i32* nonnull align 4 dereferenceable(4) %5)
  %7 = load i32, i32* %5, align 16, !tbaa !5
  %8 = icmp eq i32 %7, -1
  br i1 %8, label %129, label %9

9:                                                ; preds = %0, %79
  %10 = phi i32 [ %84, %79 ], [ %7, %0 ]
  %11 = phi i64 [ %82, %79 ], [ 0, %0 ]
  %12 = icmp eq i32 %10, 0
  br i1 %12, label %79, label %86

13:                                               ; preds = %79
  %14 = trunc i64 %82 to i32
  %15 = icmp eq i32 %14, 0
  br i1 %15, label %129, label %16

16:                                               ; preds = %13
  %17 = and i64 %82, 4294967295
  br label %93

18:                                               ; preds = %86
  %19 = trunc i64 %88 to i32
  %20 = icmp eq i32 %19, 0
  br i1 %20, label %79, label %21

21:                                               ; preds = %18
  %22 = and i64 %88, 4294967295
  %23 = icmp ult i64 %22, 8
  %24 = and i64 %88, 7
  %25 = sub nsw i64 %22, %24
  %26 = icmp eq i64 %24, 0
  br label %27

27:                                               ; preds = %21, %75
  %28 = phi i64 [ 0, %21 ], [ %77, %75 ]
  %29 = phi i32 [ 0, %21 ], [ %76, %75 ]
  %30 = getelementptr inbounds [100 x i32], [100 x i32]* %1, i64 0, i64 %28
  %31 = load i32, i32* %30, align 4, !tbaa !5
  br i1 %23, label %61, label %32

32:                                               ; preds = %27
  %33 = insertelement <4 x i32> <i32 poison, i32 0, i32 0, i32 0>, i32 %29, i32 0
  %34 = insertelement <4 x i32> poison, i32 %31, i32 0
  %35 = shufflevector <4 x i32> %34, <4 x i32> poison, <4 x i32> zeroinitializer
  %36 = insertelement <4 x i32> poison, i32 %31, i32 0
  %37 = shufflevector <4 x i32> %36, <4 x i32> poison, <4 x i32> zeroinitializer
  br label %38

38:                                               ; preds = %38, %32
  %39 = phi i64 [ 0, %32 ], [ %56, %38 ]
  %40 = phi <4 x i32> [ %33, %32 ], [ %54, %38 ]
  %41 = phi <4 x i32> [ zeroinitializer, %32 ], [ %55, %38 ]
  %42 = getelementptr inbounds [100 x i32], [100 x i32]* %1, i64 0, i64 %39
  %43 = bitcast i32* %42 to <4 x i32>*
  %44 = load <4 x i32>, <4 x i32>* %43, align 16, !tbaa !5
  %45 = getelementptr inbounds i32, i32* %42, i64 4
  %46 = bitcast i32* %45 to <4 x i32>*
  %47 = load <4 x i32>, <4 x i32>* %46, align 16, !tbaa !5
  %48 = shl nsw <4 x i32> %44, <i32 1, i32 1, i32 1, i32 1>
  %49 = shl nsw <4 x i32> %47, <i32 1, i32 1, i32 1, i32 1>
  %50 = icmp eq <4 x i32> %35, %48
  %51 = icmp eq <4 x i32> %37, %49
  %52 = zext <4 x i1> %50 to <4 x i32>
  %53 = zext <4 x i1> %51 to <4 x i32>
  %54 = add <4 x i32> %40, %52
  %55 = add <4 x i32> %41, %53
  %56 = add nuw i64 %39, 8
  %57 = icmp eq i64 %56, %25
  br i1 %57, label %58, label %38, !llvm.loop !9

58:                                               ; preds = %38
  %59 = add <4 x i32> %55, %54
  %60 = call i32 @llvm.vector.reduce.add.v4i32(<4 x i32> %59)
  br i1 %26, label %75, label %61

61:                                               ; preds = %27, %58
  %62 = phi i64 [ 0, %27 ], [ %25, %58 ]
  %63 = phi i32 [ %29, %27 ], [ %60, %58 ]
  br label %64

64:                                               ; preds = %61, %64
  %65 = phi i64 [ %73, %64 ], [ %62, %61 ]
  %66 = phi i32 [ %72, %64 ], [ %63, %61 ]
  %67 = getelementptr inbounds [100 x i32], [100 x i32]* %1, i64 0, i64 %65
  %68 = load i32, i32* %67, align 4, !tbaa !5
  %69 = shl nsw i32 %68, 1
  %70 = icmp eq i32 %31, %69
  %71 = zext i1 %70 to i32
  %72 = add nsw i32 %66, %71
  %73 = add nuw nsw i64 %65, 1
  %74 = icmp eq i64 %73, %22
  br i1 %74, label %75, label %64, !llvm.loop !12

75:                                               ; preds = %64, %58
  %76 = phi i32 [ %60, %58 ], [ %72, %64 ]
  %77 = add nuw nsw i64 %28, 1
  %78 = icmp eq i64 %77, %22
  br i1 %78, label %79, label %27, !llvm.loop !14

79:                                               ; preds = %75, %9, %18
  %80 = phi i32 [ 0, %18 ], [ 0, %9 ], [ %76, %75 ]
  %81 = getelementptr inbounds [100 x i32], [100 x i32]* %2, i64 0, i64 %11
  store i32 %80, i32* %81, align 4, !tbaa !5
  %82 = add nuw i64 %11, 1
  %83 = call nonnull align 8 dereferenceable(16) %"class.std::basic_istream"* @_ZNSirsERi(%"class.std::basic_istream"* nonnull align 8 dereferenceable(16) @_ZSt3cin, i32* nonnull align 4 dereferenceable(4) %5)
  %84 = load i32, i32* %5, align 16, !tbaa !5
  %85 = icmp eq i32 %84, -1
  br i1 %85, label %13, label %9, !llvm.loop !15

86:                                               ; preds = %9, %86
  %87 = phi i64 [ %88, %86 ], [ 0, %9 ]
  %88 = add nuw nsw i64 %87, 1
  %89 = getelementptr inbounds [100 x i32], [100 x i32]* %1, i64 0, i64 %88
  %90 = call nonnull align 8 dereferenceable(16) %"class.std::basic_istream"* @_ZNSirsERi(%"class.std::basic_istream"* nonnull align 8 dereferenceable(16) @_ZSt3cin, i32* nonnull align 4 dereferenceable(4) %89)
  %91 = load i32, i32* %89, align 4, !tbaa !5
  %92 = icmp eq i32 %91, 0
  br i1 %92, label %18, label %86, !llvm.loop !16

93:                                               ; preds = %16, %123
  %94 = phi i64 [ 0, %16 ], [ %127, %123 ]
  %95 = getelementptr inbounds [100 x i32], [100 x i32]* %2, i64 0, i64 %94
  %96 = load i32, i32* %95, align 4, !tbaa !5
  %97 = call nonnull align 8 dereferenceable(8) %"class.std::basic_ostream"* @_ZNSolsEi(%"class.std::basic_ostream"* nonnull align 8 dereferenceable(8) @_ZSt4cout, i32 %96)
  %98 = bitcast %"class.std::basic_ostream"* %97 to i8**
  %99 = load i8*, i8** %98, align 8, !tbaa !17
  %100 = getelementptr i8, i8* %99, i64 -24
  %101 = bitcast i8* %100 to i64*
  %102 = load i64, i64* %101, align 8
  %103 = bitcast %"class.std::basic_ostream"* %97 to i8*
  %104 = add nsw i64 %102, 240
  %105 = getelementptr inbounds i8, i8* %103, i64 %104
  %106 = bitcast i8* %105 to %"class.std::ctype"**
  %107 = load %"class.std::ctype"*, %"class.std::ctype"** %106, align 8, !tbaa !19
  %108 = icmp eq %"class.std::ctype"* %107, null
  br i1 %108, label %109, label %110

109:                                              ; preds = %93
  call void @_ZSt16__throw_bad_castv() #9
  unreachable

110:                                              ; preds = %93
  %111 = getelementptr inbounds %"class.std::ctype", %"class.std::ctype"* %107, i64 0, i32 8
  %112 = load i8, i8* %111, align 8, !tbaa !23
  %113 = icmp eq i8 %112, 0
  br i1 %113, label %117, label %114

114:                                              ; preds = %110
  %115 = getelementptr inbounds %"class.std::ctype", %"class.std::ctype"* %107, i64 0, i32 9, i64 10
  %116 = load i8, i8* %115, align 1, !tbaa !25
  br label %123

117:                                              ; preds = %110
  call void @_ZNKSt5ctypeIcE13_M_widen_initEv(%"class.std::ctype"* nonnull align 8 dereferenceable(570) %107)
  %118 = bitcast %"class.std::ctype"* %107 to i8 (%"class.std::ctype"*, i8)***
  %119 = load i8 (%"class.std::ctype"*, i8)**, i8 (%"class.std::ctype"*, i8)*** %118, align 8, !tbaa !17
  %120 = getelementptr inbounds i8 (%"class.std::ctype"*, i8)*, i8 (%"class.std::ctype"*, i8)** %119, i64 6
  %121 = load i8 (%"class.std::ctype"*, i8)*, i8 (%"class.std::ctype"*, i8)** %120, align 8
  %122 = call signext i8 %121(%"class.std::ctype"* nonnull align 8 dereferenceable(570) %107, i8 signext 10)
  br label %123

123:                                              ; preds = %114, %117
  %124 = phi i8 [ %116, %114 ], [ %122, %117 ]
  %125 = call nonnull align 8 dereferenceable(8) %"class.std::basic_ostream"* @_ZNSo3putEc(%"class.std::basic_ostream"* nonnull align 8 dereferenceable(8) %97, i8 signext %124)
  %126 = call nonnull align 8 dereferenceable(8) %"class.std::basic_ostream"* @_ZNSo5flushEv(%"class.std::basic_ostream"* nonnull align 8 dereferenceable(8) %125)
  %127 = add nuw nsw i64 %94, 1
  %128 = icmp eq i64 %127, %17
  br i1 %128, label %129, label %93, !llvm.loop !26

129:                                              ; preds = %123, %0, %13
  call void @llvm.lifetime.end.p0i8(i64 400, i8* nonnull %4) #8
  call void @llvm.lifetime.end.p0i8(i64 400, i8* nonnull %3) #8
  ret i32 0
}

; Function Attrs: argmemonly mustprogress nofree nosync nounwind willreturn
declare void @llvm.lifetime.start.p0i8(i64 immarg, i8* nocapture) #4

declare nonnull align 8 dereferenceable(16) %"class.std::basic_istream"* @_ZNSirsERi(%"class.std::basic_istream"* nonnull align 8 dereferenceable(16), i32* nonnull align 4 dereferenceable(4)) local_unnamed_addr #0

declare nonnull align 8 dereferenceable(8) %"class.std::basic_ostream"* @_ZNSolsEi(%"class.std::basic_ostream"* nonnull align 8 dereferenceable(8), i32) local_unnamed_addr #0

; Function Attrs: argmemonly mustprogress nofree nosync nounwind willreturn
declare void @llvm.lifetime.end.p0i8(i64 immarg, i8* nocapture) #4

declare nonnull align 8 dereferenceable(8) %"class.std::basic_ostream"* @_ZNSo3putEc(%"class.std::basic_ostream"* nonnull align 8 dereferenceable(8), i8 signext) local_unnamed_addr #0

declare nonnull align 8 dereferenceable(8) %"class.std::basic_ostream"* @_ZNSo5flushEv(%"class.std::basic_ostream"* nonnull align 8 dereferenceable(8)) local_unnamed_addr #0

; Function Attrs: noreturn
declare void @_ZSt16__throw_bad_castv() local_unnamed_addr #5

declare void @_ZNKSt5ctypeIcE13_M_widen_initEv(%"class.std::ctype"* nonnull align 8 dereferenceable(570)) local_unnamed_addr #0

; Function Attrs: sspstrong uwtable
define internal void @_GLOBAL__sub_I_200.cpp() #6 section ".text.startup" {
  tail call void @_ZNSt8ios_base4InitC1Ev(%"class.std::ios_base::Init"* nonnull align 1 dereferenceable(1) @_ZStL8__ioinit)
  %1 = tail call i32 @__cxa_atexit(void (i8*)* bitcast (void (%"class.std::ios_base::Init"*)* @_ZNSt8ios_base4InitD1Ev to void (i8*)*), i8* getelementptr inbounds (%"class.std::ios_base::Init", %"class.std::ios_base::Init"* @_ZStL8__ioinit, i64 0, i32 0), i8* nonnull @__dso_handle) #8
  ret void
}

; Function Attrs: nofree nosync nounwind readnone willreturn
declare i32 @llvm.vector.reduce.add.v4i32(<4 x i32>) #7


!llvm.module.flags = !{!0, !1, !2, !3}
!llvm.ident = !{!4}

!0 = !{i32 1, !"wchar_size", i32 4}
!1 = !{i32 7, !"PIC Level", i32 2}
!2 = !{i32 7, !"PIE Level", i32 2}
!3 = !{i32 7, !"uwtable", i32 1}
!4 = !{!"clang version 13.0.0"}
!5 = !{!6, !6, i64 0}
!6 = !{!"int", !7, i64 0}
!7 = !{!"omnipotent char", !8, i64 0}
!8 = !{!"Simple C++ TBAA"}
!9 = distinct !{!9, !10, !11}
!10 = !{!"llvm.loop.mustprogress"}
!11 = !{!"llvm.loop.isvectorized", i32 1}
!12 = distinct !{!12, !10, !13, !11}
!13 = !{!"llvm.loop.unroll.runtime.disable"}
!14 = distinct !{!14, !10}
!15 = distinct !{!15, !10}
!16 = distinct !{!16, !10}
!17 = !{!18, !18, i64 0}
!18 = !{!"vtable pointer", !8, i64 0}
!19 = !{!20, !21, i64 240}
!20 = !{!"_ZTSSt9basic_iosIcSt11char_traitsIcEE", !21, i64 216, !7, i64 224, !22, i64 225, !21, i64 232, !21, i64 240, !21, i64 248, !21, i64 256}
!21 = !{!"any pointer", !7, i64 0}
!22 = !{!"bool", !7, i64 0}
!23 = !{!24, !7, i64 56}
!24 = !{!"_ZTSSt5ctypeIcE", !21, i64 16, !22, i64 24, !21, i64 32, !21, i64 40, !21, i64 48, !7, i64 56, !7, i64 57, !7, i64 313, !7, i64 569}
!25 = !{!7, !7, i64 0}
!26 = distinct !{!26, !10}
